# SymbolsHelper-Confirmed: 6.2.0 amd64
libQt6PrintSupport.so.6 libqt6printsupport6 #MINVER#
| libqt6printsupport6 #MINVER#, qt6-base-abi (= 6.2.2)
* Build-Depends-Package: qt6-base-dev
 Qt_6.0@Qt_6.0 6.1.2
 Qt_6.1@Qt_6.1 6.1.2
 Qt_6.2@Qt_6.2 6.2.0
 Qt_6@Qt_6 6.1.2
 Qt_6_PRIVATE_API@Qt_6_PRIVATE_API 6.1.2 1
 _ZGVZN9QMetaType21registerConverterImplISt4pairI9QMarginsFN11QPageLayout4UnitEEN17QtMetaTypePrivate25QPairVariantInterfaceImplEEEbSt8functionIFbPKvPvEES_S_E10unregister@Qt_6 6.2.0
 _ZN12QCUPSSupport10setJobHoldEP8QPrinterNS_12JobHoldUntilE5QTime@Qt_6_PRIVATE_API 6.1.2 1
 _ZN12QCUPSSupport10setPageSetEP8QPrinterNS_7PageSetE@Qt_6_PRIVATE_API 6.1.2 1
 _ZN12QCUPSSupport12setPageRangeEP8QPrinterRK7QString@Qt_6_PRIVATE_API 6.1.2 1
 _ZN12QCUPSSupport12setPageRangeEP8QPrinterii@Qt_6_PRIVATE_API 6.1.2 1
 _ZN12QCUPSSupport13findPpdOptionEPKcP12QPrintDevice@Qt_6_PRIVATE_API 6.1.2 1
 _ZN12QCUPSSupport13setCupsOptionEP8QPrinterRK7QStringS4_@Qt_6_PRIVATE_API 6.1.2 1
 _ZN12QCUPSSupport13setJobBillingEP8QPrinterRK7QString@Qt_6_PRIVATE_API 6.1.2 1
 _ZN12QCUPSSupport14parseJobSheetsERK7QString@Qt_6_PRIVATE_API 6.1.2 1
 _ZN12QCUPSSupport14setBannerPagesEP8QPrinterNS_10BannerPageES2_@Qt_6_PRIVATE_API 6.1.2 1
 _ZN12QCUPSSupport14setJobPriorityEP8QPrinteri@Qt_6_PRIVATE_API 6.1.2 1
 _ZN12QCUPSSupport15clearCupsOptionEP8QPrinterRK7QString@Qt_6_PRIVATE_API 6.1.2 1
 _ZN12QCUPSSupport16clearCupsOptionsEP8QPrinter@Qt_6_PRIVATE_API 6.1.2 1
 _ZN12QCUPSSupport17parseJobHoldUntilERK7QString@Qt_6_PRIVATE_API 6.1.2 1
 _ZN12QCUPSSupport22setPagesPerSheetLayoutEP8QPrinterNS_13PagesPerSheetENS_19PagesPerSheetLayoutE@Qt_6_PRIVATE_API 6.1.2 1
 _ZN12QPrintDevice11setPropertyENS_22PrintDevicePropertyKeyERK8QVariant@Qt_6_PRIVATE_API 6.1.2 1
 _ZN12QPrintDeviceC1EP20QPlatformPrintDevice@Qt_6_PRIVATE_API 6.1.2 1
 _ZN12QPrintDeviceC1ERK7QString@Qt_6_PRIVATE_API 6.1.2 1
 _ZN12QPrintDeviceC1ERKS_@Qt_6_PRIVATE_API 6.1.2 1
 _ZN12QPrintDeviceC1Ev@Qt_6_PRIVATE_API 6.1.2 1
 _ZN12QPrintDeviceC2EP20QPlatformPrintDevice@Qt_6_PRIVATE_API 6.1.2 1
 _ZN12QPrintDeviceC2ERK7QString@Qt_6_PRIVATE_API 6.1.2 1
 _ZN12QPrintDeviceC2ERKS_@Qt_6_PRIVATE_API 6.1.2 1
 _ZN12QPrintDeviceC2Ev@Qt_6_PRIVATE_API 6.1.2 1
 _ZN12QPrintDeviceD1Ev@Qt_6_PRIVATE_API 6.1.2 1
 _ZN12QPrintDeviceD2Ev@Qt_6_PRIVATE_API 6.1.2 1
 _ZN12QPrintDeviceaSERKS_@Qt_6_PRIVATE_API 6.1.2 1
 _ZN12QPrintDialog10setOptionsE6QFlagsIN20QAbstractPrintDialog17PrintDialogOptionEE@Qt_6 6.1.2
 _ZN12QPrintDialog10setVisibleEb@Qt_6 6.1.2
 _ZN12QPrintDialog11qt_metacallEN11QMetaObject4CallEiPPv@Qt_6 6.1.2
 _ZN12QPrintDialog11qt_metacastEPKc@Qt_6 6.1.2
 _ZN12QPrintDialog16staticMetaObjectE@Qt_6 6.1.2
 _ZN12QPrintDialog4doneEi@Qt_6 6.1.2
 _ZN12QPrintDialog4execEv@Qt_6 6.1.2
 _ZN12QPrintDialog4openEP7QObjectPKc@Qt_6 6.1.2
 _ZN12QPrintDialog6acceptEv@Qt_6 6.1.2
 _ZN12QPrintDialog8acceptedEP8QPrinter@Qt_6 6.1.2
 _ZN12QPrintDialog9setOptionEN20QAbstractPrintDialog17PrintDialogOptionEb@Qt_6 6.1.2
 _ZN12QPrintDialogC1EP7QWidget@Qt_6 6.1.2
 _ZN12QPrintDialogC1EP8QPrinterP7QWidget@Qt_6 6.1.2
 _ZN12QPrintDialogC2EP7QWidget@Qt_6 6.1.2
 _ZN12QPrintDialogC2EP8QPrinterP7QWidget@Qt_6 6.1.2
 _ZN12QPrintDialogD0Ev@Qt_6 6.1.2
 _ZN12QPrintDialogD1Ev@Qt_6 6.1.2
 _ZN12QPrintDialogD2Ev@Qt_6 6.1.2
 _ZN12QPrinterInfo11printerInfoERK7QString@Qt_6 6.1.2
 _ZN12QPrinterInfo14defaultPrinterEv@Qt_6 6.1.2
 _ZN12QPrinterInfo17availablePrintersEv@Qt_6 6.1.2
 _ZN12QPrinterInfo18defaultPrinterNameEv@Qt_6 6.1.2
 _ZN12QPrinterInfo21availablePrinterNamesEv@Qt_6 6.1.2
 _ZN12QPrinterInfoC1ERK7QString@Qt_6 6.1.2
 _ZN12QPrinterInfoC1ERK8QPrinter@Qt_6 6.1.2
 _ZN12QPrinterInfoC1ERKS_@Qt_6 6.1.2
 _ZN12QPrinterInfoC1Ev@Qt_6 6.1.2
 _ZN12QPrinterInfoC2ERK7QString@Qt_6 6.1.2
 _ZN12QPrinterInfoC2ERK8QPrinter@Qt_6 6.1.2
 _ZN12QPrinterInfoC2ERKS_@Qt_6 6.1.2
 _ZN12QPrinterInfoC2Ev@Qt_6 6.1.2
 _ZN12QPrinterInfoD1Ev@Qt_6 6.1.2
 _ZN12QPrinterInfoD2Ev@Qt_6 6.1.2
 _ZN12QPrinterInfoaSERKS_@Qt_6 6.1.2
 _ZN15QPdfPrintEngine11setPropertyEN12QPrintEngine22PrintEnginePropertyKeyERK8QVariant@Qt_6_PRIVATE_API 6.1.2 1
 _ZN15QPdfPrintEngine3endEv@Qt_6_PRIVATE_API 6.1.2 1
 _ZN15QPdfPrintEngine5beginEP12QPaintDevice@Qt_6_PRIVATE_API 6.1.2 1
 _ZN15QPdfPrintEngine7newPageEv@Qt_6_PRIVATE_API 6.1.2 1
 _ZN15QPdfPrintEngineC1EN8QPrinter11PrinterModeEN10QPdfEngine10PdfVersionE@Qt_6_PRIVATE_API 6.1.2 1
 _ZN15QPdfPrintEngineC1ER22QPdfPrintEnginePrivate@Qt_6_PRIVATE_API 6.1.2 1
 _ZN15QPdfPrintEngineC2EN8QPrinter11PrinterModeEN10QPdfEngine10PdfVersionE@Qt_6_PRIVATE_API 6.1.2 1
 _ZN15QPdfPrintEngineC2ER22QPdfPrintEnginePrivate@Qt_6_PRIVATE_API 6.1.2 1
 _ZN15QPdfPrintEngineD0Ev@Qt_6_PRIVATE_API 6.1.2 1
 _ZN15QPdfPrintEngineD1Ev@Qt_6_PRIVATE_API 6.1.2 1
 _ZN15QPdfPrintEngineD2Ev@Qt_6_PRIVATE_API 6.1.2 1
 _ZN15QPrinterPrivate11initEnginesEN8QPrinter12OutputFormatERK12QPrinterInfo@Qt_6_PRIVATE_API 6.1.2 1
 _ZN15QPrinterPrivate11setPropertyEN12QPrintEngine22PrintEnginePropertyKeyERK8QVariant@Qt_6_PRIVATE_API 6.1.2 1
 _ZN15QPrinterPrivate13changeEnginesEN8QPrinter12OutputFormatERK12QPrinterInfo@Qt_6_PRIVATE_API 6.1.2 1
 _ZN15QPrinterPrivate14setPreviewModeEb@Qt_6_PRIVATE_API 6.1.2 1
 _ZN15QPrinterPrivate16findValidPrinterERK12QPrinterInfo@Qt_6_PRIVATE_API 6.1.2 1
 _ZN15QPrinterPrivate4initERK12QPrinterInfoN8QPrinter11PrinterModeE@Qt_6_PRIVATE_API 6.1.2 1
 _ZN16QPageSetupDialog11qt_metacallEN11QMetaObject4CallEiPPv@Qt_6 6.1.2
 _ZN16QPageSetupDialog11qt_metacastEPKc@Qt_6 6.1.2
 _ZN16QPageSetupDialog16staticMetaObjectE@Qt_6 6.1.2
 _ZN16QPageSetupDialog4doneEi@Qt_6 6.1.2
 _ZN16QPageSetupDialog4execEv@Qt_6 6.1.2
 _ZN16QPageSetupDialog4openEP7QObjectPKc@Qt_6 6.1.2
 _ZN16QPageSetupDialog7printerEv@Qt_6 6.1.2
 _ZN16QPageSetupDialogC1EP7QWidget@Qt_6 6.1.2
 _ZN16QPageSetupDialogC1EP8QPrinterP7QWidget@Qt_6 6.1.2
 _ZN16QPageSetupDialogC2EP7QWidget@Qt_6 6.1.2
 _ZN16QPageSetupDialogC2EP8QPrinterP7QWidget@Qt_6 6.1.2
 _ZN16QPageSetupDialogD0Ev@Qt_6 6.1.2
 _ZN16QPageSetupDialogD1Ev@Qt_6 6.1.2
 _ZN16QPageSetupDialogD2Ev@Qt_6 6.1.2
 _ZN17QAlphaPaintEngine10drawPixmapERK6QRectFRK7QPixmapS2_@Qt_6_PRIVATE_API 6.1.2 1
 _ZN17QAlphaPaintEngine11drawPolygonEPK7QPointFiN12QPaintEngine15PolygonDrawModeE@Qt_6_PRIVATE_API 6.1.2 1
 _ZN17QAlphaPaintEngine11updateStateERK17QPaintEngineState@Qt_6_PRIVATE_API 6.1.2 1
 _ZN17QAlphaPaintEngine12drawTextItemERK7QPointFRK9QTextItem@Qt_6_PRIVATE_API 6.1.2 1
 _ZN17QAlphaPaintEngine12flushAndInitEb@Qt_6_PRIVATE_API 6.1.2 1
 _ZN17QAlphaPaintEngine15drawTiledPixmapERK6QRectFRK7QPixmapRK7QPointF@Qt_6_PRIVATE_API 6.1.2 1
 _ZN17QAlphaPaintEngine3endEv@Qt_6_PRIVATE_API 6.1.2 1
 _ZN17QAlphaPaintEngine5beginEP12QPaintDevice@Qt_6_PRIVATE_API 6.1.2 1
 _ZN17QAlphaPaintEngine7cleanUpEv@Qt_6_PRIVATE_API 6.1.2 1
 _ZN17QAlphaPaintEngine8drawPathERK12QPainterPath@Qt_6_PRIVATE_API 6.1.2 1
 _ZN17QAlphaPaintEngineC1ER24QAlphaPaintEnginePrivate6QFlagsIN12QPaintEngine18PaintEngineFeatureEE@Qt_6_PRIVATE_API 6.1.2 1
 _ZN17QAlphaPaintEngineC2ER24QAlphaPaintEnginePrivate6QFlagsIN12QPaintEngine18PaintEngineFeatureEE@Qt_6_PRIVATE_API 6.1.2 1
 _ZN17QAlphaPaintEngineD0Ev@Qt_6_PRIVATE_API 6.1.2 1
 _ZN17QAlphaPaintEngineD1Ev@Qt_6_PRIVATE_API 6.1.2 1
 _ZN17QAlphaPaintEngineD2Ev@Qt_6_PRIVATE_API 6.1.2 1
 _ZN19QPrintPreviewDialog10setVisibleEb@Qt_6 6.1.2
 _ZN19QPrintPreviewDialog11qt_metacallEN11QMetaObject4CallEiPPv@Qt_6 6.1.2
 _ZN19QPrintPreviewDialog11qt_metacastEPKc@Qt_6 6.1.2
 _ZN19QPrintPreviewDialog14paintRequestedEP8QPrinter@Qt_6 6.1.2
 _ZN19QPrintPreviewDialog16staticMetaObjectE@Qt_6 6.1.2
 _ZN19QPrintPreviewDialog4doneEi@Qt_6 6.1.2
 _ZN19QPrintPreviewDialog4openEP7QObjectPKc@Qt_6 6.1.2
 _ZN19QPrintPreviewDialog7printerEv@Qt_6 6.1.2
 _ZN19QPrintPreviewDialogC1EP7QWidget6QFlagsIN2Qt10WindowTypeEE@Qt_6 6.1.2
 _ZN19QPrintPreviewDialogC1EP8QPrinterP7QWidget6QFlagsIN2Qt10WindowTypeEE@Qt_6 6.1.2
 _ZN19QPrintPreviewDialogC2EP7QWidget6QFlagsIN2Qt10WindowTypeEE@Qt_6 6.1.2
 _ZN19QPrintPreviewDialogC2EP8QPrinterP7QWidget6QFlagsIN2Qt10WindowTypeEE@Qt_6 6.1.2
 _ZN19QPrintPreviewDialogD0Ev@Qt_6 6.1.2
 _ZN19QPrintPreviewDialogD1Ev@Qt_6 6.1.2
 _ZN19QPrintPreviewDialogD2Ev@Qt_6 6.1.2
 _ZN19QPrintPreviewWidget10fitToWidthEv@Qt_6 6.1.2
 _ZN19QPrintPreviewWidget10setVisibleEb@Qt_6 6.1.2
 _ZN19QPrintPreviewWidget11qt_metacallEN11QMetaObject4CallEiPPv@Qt_6 6.1.2
 _ZN19QPrintPreviewWidget11qt_metacastEPKc@Qt_6 6.1.2
 _ZN19QPrintPreviewWidget11setViewModeENS_8ViewModeE@Qt_6 6.1.2
 _ZN19QPrintPreviewWidget11setZoomModeENS_8ZoomModeE@Qt_6 6.1.2
 _ZN19QPrintPreviewWidget13setZoomFactorEd@Qt_6 6.1.2
 _ZN19QPrintPreviewWidget13updatePreviewEv@Qt_6 6.1.2
 _ZN19QPrintPreviewWidget14paintRequestedEP8QPrinter@Qt_6 6.1.2
 _ZN19QPrintPreviewWidget14previewChangedEv@Qt_6 6.1.2
 _ZN19QPrintPreviewWidget14setCurrentPageEi@Qt_6 6.1.2
 _ZN19QPrintPreviewWidget14setOrientationEN11QPageLayout11OrientationE@Qt_6 6.1.2
 _ZN19QPrintPreviewWidget16staticMetaObjectE@Qt_6 6.1.2
 _ZN19QPrintPreviewWidget19setAllPagesViewModeEv@Qt_6 6.1.2
 _ZN19QPrintPreviewWidget21setSinglePageViewModeEv@Qt_6 6.1.2
 _ZN19QPrintPreviewWidget22setFacingPagesViewModeEv@Qt_6 6.1.2
 _ZN19QPrintPreviewWidget22setPortraitOrientationEv@Qt_6 6.1.2
 _ZN19QPrintPreviewWidget23setLandscapeOrientationEv@Qt_6 6.1.2
 _ZN19QPrintPreviewWidget5printEv@Qt_6 6.1.2
 _ZN19QPrintPreviewWidget6zoomInEd@Qt_6 6.1.2
 _ZN19QPrintPreviewWidget7zoomOutEd@Qt_6 6.1.2
 _ZN19QPrintPreviewWidget9fitInViewEv@Qt_6 6.1.2
 _ZN19QPrintPreviewWidgetC1EP7QWidget6QFlagsIN2Qt10WindowTypeEE@Qt_6 6.1.2
 _ZN19QPrintPreviewWidgetC1EP8QPrinterP7QWidget6QFlagsIN2Qt10WindowTypeEE@Qt_6 6.1.2
 _ZN19QPrintPreviewWidgetC2EP7QWidget6QFlagsIN2Qt10WindowTypeEE@Qt_6 6.1.2
 _ZN19QPrintPreviewWidgetC2EP8QPrinterP7QWidget6QFlagsIN2Qt10WindowTypeEE@Qt_6 6.1.2
 _ZN19QPrintPreviewWidgetD0Ev@Qt_6 6.1.2
 _ZN19QPrintPreviewWidgetD1Ev@Qt_6 6.1.2
 _ZN19QPrintPreviewWidgetD2Ev@Qt_6 6.1.2
 _ZN20QAbstractPrintDialog11qt_metacallEN11QMetaObject4CallEiPPv@Qt_6 6.1.2
 _ZN20QAbstractPrintDialog11qt_metacastEPKc@Qt_6 6.1.2
 _ZN20QAbstractPrintDialog13setOptionTabsERK5QListIP7QWidgetE@Qt_6 6.1.2
 _ZN20QAbstractPrintDialog13setPrintRangeENS_10PrintRangeE@Qt_6 6.1.2
 _ZN20QAbstractPrintDialog16staticMetaObjectE@Qt_6 6.1.2
 _ZN20QAbstractPrintDialog9setFromToEii@Qt_6 6.1.2
 _ZN20QAbstractPrintDialog9setMinMaxEii@Qt_6 6.1.2
 _ZN20QAbstractPrintDialogC1EP8QPrinterP7QWidget@Qt_6 6.1.2
 _ZN20QAbstractPrintDialogC1ER27QAbstractPrintDialogPrivateP8QPrinterP7QWidget@Qt_6 6.1.2
 _ZN20QAbstractPrintDialogC2EP8QPrinterP7QWidget@Qt_6 6.1.2
 _ZN20QAbstractPrintDialogC2ER27QAbstractPrintDialogPrivateP8QPrinterP7QWidget@Qt_6 6.1.2
 _ZN20QAbstractPrintDialogD0Ev@Qt_6 6.1.2
 _ZN20QAbstractPrintDialogD1Ev@Qt_6 6.1.2
 _ZN20QAbstractPrintDialogD2Ev@Qt_6 6.1.2
 _ZN20QPlatformPrintDevice11setPropertyEN12QPrintDevice22PrintDevicePropertyKeyERK8QVariant@Qt_6_PRIVATE_API 6.1.2 1
 _ZN20QPlatformPrintDevice14createPageSizeERK7QStringRK5QSizeS2_@Qt_6_PRIVATE_API 6.1.2 1
 _ZN20QPlatformPrintDevice14createPageSizeEiRK5QSizeRK7QString@Qt_6_PRIVATE_API 6.1.2 1
 _ZN20QPlatformPrintDeviceC1ERK7QString@Qt_6_PRIVATE_API 6.1.2 1
 _ZN20QPlatformPrintDeviceC2ERK7QString@Qt_6_PRIVATE_API 6.1.2 1
 _ZN20QPlatformPrintDeviceD0Ev@Qt_6_PRIVATE_API 6.1.2 1
 _ZN20QPlatformPrintDeviceD1Ev@Qt_6_PRIVATE_API 6.1.2 1
 _ZN20QPlatformPrintDeviceD2Ev@Qt_6_PRIVATE_API 6.1.2 1
 _ZN22QPdfPrintEnginePrivate15openPrintDeviceEv@Qt_6_PRIVATE_API 6.1.2 1
 _ZN22QPdfPrintEnginePrivate16closePrintDeviceEv@Qt_6_PRIVATE_API 6.1.2 1
 _ZN22QPdfPrintEnginePrivateC1EN8QPrinter11PrinterModeE@Qt_6_PRIVATE_API 6.1.2 1
 _ZN22QPdfPrintEnginePrivateC2EN8QPrinter11PrinterModeE@Qt_6_PRIVATE_API 6.1.2 1
 _ZN22QPdfPrintEnginePrivateD0Ev@Qt_6_PRIVATE_API 6.1.2 1
 _ZN22QPdfPrintEnginePrivateD1Ev@Qt_6_PRIVATE_API 6.1.2 1
 _ZN22QPdfPrintEnginePrivateD2Ev@Qt_6_PRIVATE_API 6.1.2 1
 _ZN23QPlatformPrinterSupport14createPageSizeERK7QString5QSizeS2_@Qt_6_PRIVATE_API 6.1.2 1
 _ZN23QPlatformPrinterSupport17createPaintEngineEP12QPrintEngineN8QPrinter11PrinterModeE@Qt_6_PRIVATE_API 6.1.2 1
 _ZN23QPlatformPrinterSupport17createPrintDeviceEP20QPlatformPrintDevice@Qt_6_PRIVATE_API 6.1.2 1
 _ZN23QPlatformPrinterSupport17createPrintDeviceERK7QString@Qt_6_PRIVATE_API 6.1.2 1
 _ZN23QPlatformPrinterSupport23createNativePrintEngineEN8QPrinter11PrinterModeERK7QString@Qt_6_PRIVATE_API 6.1.2 1
 _ZN23QPlatformPrinterSupportC1Ev@Qt_6_PRIVATE_API 6.1.2 1
 _ZN23QPlatformPrinterSupportC2Ev@Qt_6_PRIVATE_API 6.1.2 1
 _ZN23QPlatformPrinterSupportD0Ev@Qt_6_PRIVATE_API 6.1.2 1
 _ZN23QPlatformPrinterSupportD1Ev@Qt_6_PRIVATE_API 6.1.2 1
 _ZN23QPlatformPrinterSupportD2Ev@Qt_6_PRIVATE_API 6.1.2 1
 _ZN29QPlatformPrinterSupportPlugin11qt_metacallEN11QMetaObject4CallEiPPv@Qt_6_PRIVATE_API 6.1.2 1
 _ZN29QPlatformPrinterSupportPlugin11qt_metacastEPKc@Qt_6_PRIVATE_API 6.1.2 1
 _ZN29QPlatformPrinterSupportPlugin16staticMetaObjectE@Qt_6_PRIVATE_API 6.1.2 1
 _ZN29QPlatformPrinterSupportPlugin3getEv@Qt_6_PRIVATE_API 6.1.2 1
 _ZN29QPlatformPrinterSupportPluginC1EP7QObject@Qt_6_PRIVATE_API 6.1.2 1
 _ZN29QPlatformPrinterSupportPluginC2EP7QObject@Qt_6_PRIVATE_API 6.1.2 1
 _ZN29QPlatformPrinterSupportPluginD0Ev@Qt_6_PRIVATE_API 6.1.2 1
 _ZN29QPlatformPrinterSupportPluginD1Ev@Qt_6_PRIVATE_API 6.1.2 1
 _ZN29QPlatformPrinterSupportPluginD2Ev@Qt_6_PRIVATE_API 6.1.2 1
 _ZN8QPrinter10setCreatorERK7QString@Qt_6 6.1.2
 _ZN8QPrinter10setDocNameERK7QString@Qt_6 6.1.2
 _ZN8QPrinter10setEnginesEP12QPrintEngineP12QPaintEngine@Qt_6 6.1.2
 _ZN8QPrinter11setFullPageEb@Qt_6 6.1.2
 _ZN8QPrinter12setColorModeENS_9ColorModeE@Qt_6 6.1.2
 _ZN8QPrinter12setCopyCountEi@Qt_6 6.1.2
 _ZN8QPrinter12setPageOrderENS_9PageOrderE@Qt_6 6.1.2
 _ZN8QPrinter13setPdfVersionEN17QPagedPaintDevice10PdfVersionE@Qt_6 6.1.2
 _ZN8QPrinter13setPrintRangeENS_10PrintRangeE@Qt_6 6.1.2
 _ZN8QPrinter13setResolutionEi@Qt_6 6.1.2
 _ZN8QPrinter14setPaperSourceENS_11PaperSourceE@Qt_6 6.1.2
 _ZN8QPrinter14setPrinterNameERK7QString@Qt_6 6.1.2
 _ZN8QPrinter15setOutputFormatENS_12OutputFormatE@Qt_6 6.1.2
 _ZN8QPrinter15setPrintProgramERK7QString@Qt_6 6.1.2
 _ZN8QPrinter16setCollateCopiesEb@Qt_6 6.1.2
 _ZN8QPrinter17setOutputFileNameERK7QString@Qt_6 6.1.2
 _ZN8QPrinter23setFontEmbeddingEnabledEb@Qt_6 6.1.2
 _ZN8QPrinter25setPrinterSelectionOptionERK7QString@Qt_6 6.1.2
 _ZN8QPrinter5abortEv@Qt_6 6.1.2
 _ZN8QPrinter7newPageEv@Qt_6 6.1.2
 _ZN8QPrinter9setDuplexENS_10DuplexModeE@Qt_6 6.1.2
 _ZN8QPrinter9setFromToEii@Qt_6 6.1.2
 _ZN8QPrinterC1ENS_11PrinterModeE@Qt_6 6.1.2
 _ZN8QPrinterC1ERK12QPrinterInfoNS_11PrinterModeE@Qt_6 6.1.2
 _ZN8QPrinterC2ENS_11PrinterModeE@Qt_6 6.1.2
 _ZN8QPrinterC2ERK12QPrinterInfoNS_11PrinterModeE@Qt_6 6.1.2
 _ZN8QPrinterD0Ev@Qt_6 6.1.2
 _ZN8QPrinterD1Ev@Qt_6 6.1.2
 _ZN8QPrinterD2Ev@Qt_6 6.1.2
 _ZNK12QPrintDevice12makeAndModelEv@Qt_6_PRIVATE_API 6.1.2 1
 _ZNK12QPrintDevice15defaultPageSizeEv@Qt_6_PRIVATE_API 6.1.2 1
 _ZNK12QPrintDevice16defaultColorModeEv@Qt_6_PRIVATE_API 6.1.2 1
 _ZNK12QPrintDevice16defaultInputSlotEv@Qt_6_PRIVATE_API 6.1.2 1
 _ZNK12QPrintDevice16defaultOutputBinEv@Qt_6_PRIVATE_API 6.1.2 1
 _ZNK12QPrintDevice16printableMarginsERK9QPageSizeN11QPageLayout11OrientationEi@Qt_6_PRIVATE_API 6.1.2 1
 _ZNK12QPrintDevice17defaultDuplexModeEv@Qt_6_PRIVATE_API 6.1.2 1
 _ZNK12QPrintDevice17defaultResolutionEv@Qt_6_PRIVATE_API 6.1.2 1
 _ZNK12QPrintDevice17isValidPageLayoutERK11QPageLayouti@Qt_6_PRIVATE_API 6.1.2 1
 _ZNK12QPrintDevice17supportedPageSizeEN9QPageSize10PageSizeIdE@Qt_6_PRIVATE_API 6.1.2 1
 _ZNK12QPrintDevice17supportedPageSizeERK5QSize@Qt_6_PRIVATE_API 6.1.2 1
 _ZNK12QPrintDevice17supportedPageSizeERK6QSizeFN9QPageSize4UnitE@Qt_6_PRIVATE_API 6.1.2 1
 _ZNK12QPrintDevice17supportedPageSizeERK7QString@Qt_6_PRIVATE_API 6.1.2 1
 _ZNK12QPrintDevice17supportedPageSizeERK9QPageSize@Qt_6_PRIVATE_API 6.1.2 1
 _ZNK12QPrintDevice18isFeatureAvailableENS_22PrintDevicePropertyKeyERK8QVariant@Qt_6_PRIVATE_API 6.1.2 1
 _ZNK12QPrintDevice18supportedMimeTypesEv@Qt_6_PRIVATE_API 6.1.2 1
 _ZNK12QPrintDevice18supportedPageSizesEv@Qt_6_PRIVATE_API 6.1.2 1
 _ZNK12QPrintDevice19supportedColorModesEv@Qt_6_PRIVATE_API 6.1.2 1
 _ZNK12QPrintDevice19supportedInputSlotsEv@Qt_6_PRIVATE_API 6.1.2 1
 _ZNK12QPrintDevice19supportedOutputBinsEv@Qt_6_PRIVATE_API 6.1.2 1
 _ZNK12QPrintDevice20supportedDuplexModesEv@Qt_6_PRIVATE_API 6.1.2 1
 _ZNK12QPrintDevice20supportedResolutionsEv@Qt_6_PRIVATE_API 6.1.2 1
 _ZNK12QPrintDevice21supportsCollateCopiesEv@Qt_6_PRIVATE_API 6.1.2 1
 _ZNK12QPrintDevice22supportsMultipleCopiesEv@Qt_6_PRIVATE_API 6.1.2 1
 _ZNK12QPrintDevice23maximumPhysicalPageSizeEv@Qt_6_PRIVATE_API 6.1.2 1
 _ZNK12QPrintDevice23minimumPhysicalPageSizeEv@Qt_6_PRIVATE_API 6.1.2 1
 _ZNK12QPrintDevice23supportsCustomPageSizesEv@Qt_6_PRIVATE_API 6.1.2 1
 _ZNK12QPrintDevice2idEv@Qt_6_PRIVATE_API 6.1.2 1
 _ZNK12QPrintDevice4nameEv@Qt_6_PRIVATE_API 6.1.2 1
 _ZNK12QPrintDevice5stateEv@Qt_6_PRIVATE_API 6.1.2 1
 _ZNK12QPrintDevice6formatE6QDebug@Qt_6_PRIVATE_API 6.1.2 1
 _ZNK12QPrintDevice7isValidEv@Qt_6_PRIVATE_API 6.1.2 1
 _ZNK12QPrintDevice8isRemoteEv@Qt_6_PRIVATE_API 6.1.2 1
 _ZNK12QPrintDevice8locationEv@Qt_6_PRIVATE_API 6.1.2 1
 _ZNK12QPrintDevice8propertyENS_22PrintDevicePropertyKeyE@Qt_6_PRIVATE_API 6.1.2 1
 _ZNK12QPrintDevice9isDefaultEv@Qt_6_PRIVATE_API 6.1.2 1
 _ZNK12QPrintDeviceeqERKS_@Qt_6_PRIVATE_API 6.1.2 1
 _ZNK12QPrintDialog10metaObjectEv@Qt_6 6.1.2
 _ZNK12QPrintDialog10testOptionEN20QAbstractPrintDialog17PrintDialogOptionE@Qt_6 6.1.2
 _ZNK12QPrintDialog7optionsEv@Qt_6 6.1.2
 _ZNK12QPrinterInfo11descriptionEv@Qt_6 6.1.2
 _ZNK12QPrinterInfo11printerNameEv@Qt_6 6.1.2
 _ZNK12QPrinterInfo12makeAndModelEv@Qt_6 6.1.2
 _ZNK12QPrinterInfo15defaultPageSizeEv@Qt_6 6.1.2
 _ZNK12QPrinterInfo16defaultColorModeEv@Qt_6 6.1.2
 _ZNK12QPrinterInfo17defaultDuplexModeEv@Qt_6 6.1.2
 _ZNK12QPrinterInfo18supportedPageSizesEv@Qt_6 6.1.2
 _ZNK12QPrinterInfo19supportedColorModesEv@Qt_6 6.1.2
 _ZNK12QPrinterInfo20supportedDuplexModesEv@Qt_6 6.1.2
 _ZNK12QPrinterInfo20supportedResolutionsEv@Qt_6 6.1.2
 _ZNK12QPrinterInfo23maximumPhysicalPageSizeEv@Qt_6 6.1.2
 _ZNK12QPrinterInfo23minimumPhysicalPageSizeEv@Qt_6 6.1.2
 _ZNK12QPrinterInfo23supportsCustomPageSizesEv@Qt_6 6.1.2
 _ZNK12QPrinterInfo5stateEv@Qt_6 6.1.2
 _ZNK12QPrinterInfo6isNullEv@Qt_6 6.1.2
 _ZNK12QPrinterInfo8isRemoteEv@Qt_6 6.1.2
 _ZNK12QPrinterInfo8locationEv@Qt_6 6.1.2
 _ZNK12QPrinterInfo9isDefaultEv@Qt_6 6.1.2
 _ZNK15QPdfPrintEngine6metricEN12QPaintDevice17PaintDeviceMetricE@Qt_6_PRIVATE_API 6.1.2 1
 _ZNK15QPdfPrintEngine8propertyEN12QPrintEngine22PrintEnginePropertyKeyE@Qt_6_PRIVATE_API 6.1.2 1
 _ZNK15QPrinterPrivate12previewPagesEv@Qt_6_PRIVATE_API 6.1.2 1
 _ZNK16QPageSetupDialog10metaObjectEv@Qt_6 6.1.2
 _ZNK17QAlphaPaintEngine12continueCallEv@Qt_6_PRIVATE_API 6.1.2 1
 _ZNK17QAlphaPaintEngine13alphaClippingEv@Qt_6_PRIVATE_API 6.1.2 1
 _ZNK19QPrintPreviewDialog10metaObjectEv@Qt_6 6.1.2
 _ZNK19QPrintPreviewWidget10metaObjectEv@Qt_6 6.1.2
 _ZNK19QPrintPreviewWidget10zoomFactorEv@Qt_6 6.1.2
 _ZNK19QPrintPreviewWidget11currentPageEv@Qt_6 6.1.2
 _ZNK19QPrintPreviewWidget11orientationEv@Qt_6 6.1.2
 _ZNK19QPrintPreviewWidget8viewModeEv@Qt_6 6.1.2
 _ZNK19QPrintPreviewWidget8zoomModeEv@Qt_6 6.1.2
 _ZNK19QPrintPreviewWidget9pageCountEv@Qt_6 6.1.2
 _ZNK20QAbstractPrintDialog10metaObjectEv@Qt_6 6.1.2
 _ZNK20QAbstractPrintDialog10printRangeEv@Qt_6 6.1.2
 _ZNK20QAbstractPrintDialog6toPageEv@Qt_6 6.1.2
 _ZNK20QAbstractPrintDialog7maxPageEv@Qt_6 6.1.2
 _ZNK20QAbstractPrintDialog7minPageEv@Qt_6 6.1.2
 _ZNK20QAbstractPrintDialog7printerEv@Qt_6 6.1.2
 _ZNK20QAbstractPrintDialog8fromPageEv@Qt_6 6.1.2
 _ZNK20QPlatformPrintDevice12makeAndModelEv@Qt_6_PRIVATE_API 6.1.2 1
 _ZNK20QPlatformPrintDevice13loadMimeTypesEv@Qt_6_PRIVATE_API 6.1.2 1
 _ZNK20QPlatformPrintDevice13loadPageSizesEv@Qt_6_PRIVATE_API 6.1.2 1
 _ZNK20QPlatformPrintDevice14loadColorModesEv@Qt_6_PRIVATE_API 6.1.2 1
 _ZNK20QPlatformPrintDevice14loadInputSlotsEv@Qt_6_PRIVATE_API 6.1.2 1
 _ZNK20QPlatformPrintDevice14loadOutputBinsEv@Qt_6_PRIVATE_API 6.1.2 1
 _ZNK20QPlatformPrintDevice15defaultPageSizeEv@Qt_6_PRIVATE_API 6.1.2 1
 _ZNK20QPlatformPrintDevice15loadDuplexModesEv@Qt_6_PRIVATE_API 6.1.2 1
 _ZNK20QPlatformPrintDevice15loadResolutionsEv@Qt_6_PRIVATE_API 6.1.2 1
 _ZNK20QPlatformPrintDevice16defaultColorModeEv@Qt_6_PRIVATE_API 6.1.2 1
 _ZNK20QPlatformPrintDevice16defaultInputSlotEv@Qt_6_PRIVATE_API 6.1.2 1
 _ZNK20QPlatformPrintDevice16defaultOutputBinEv@Qt_6_PRIVATE_API 6.1.2 1
 _ZNK20QPlatformPrintDevice16printableMarginsERK9QPageSizeN11QPageLayout11OrientationEi@Qt_6_PRIVATE_API 6.1.2 1
 _ZNK20QPlatformPrintDevice17defaultDuplexModeEv@Qt_6_PRIVATE_API 6.1.2 1
 _ZNK20QPlatformPrintDevice17defaultResolutionEv@Qt_6_PRIVATE_API 6.1.2 1
 _ZNK20QPlatformPrintDevice17isValidPageLayoutERK11QPageLayouti@Qt_6_PRIVATE_API 6.1.2 1
 _ZNK20QPlatformPrintDevice17supportedPageSizeEN9QPageSize10PageSizeIdE@Qt_6_PRIVATE_API 6.1.2 1
 _ZNK20QPlatformPrintDevice17supportedPageSizeERK5QSize@Qt_6_PRIVATE_API 6.1.2 1
 _ZNK20QPlatformPrintDevice17supportedPageSizeERK6QSizeFN9QPageSize4UnitE@Qt_6_PRIVATE_API 6.1.2 1
 _ZNK20QPlatformPrintDevice17supportedPageSizeERK7QString@Qt_6_PRIVATE_API 6.1.2 1
 _ZNK20QPlatformPrintDevice17supportedPageSizeERK9QPageSize@Qt_6_PRIVATE_API 6.1.2 1
 _ZNK20QPlatformPrintDevice18isFeatureAvailableEN12QPrintDevice22PrintDevicePropertyKeyERK8QVariant@Qt_6_PRIVATE_API 6.1.2 1
 _ZNK20QPlatformPrintDevice18supportedMimeTypesEv@Qt_6_PRIVATE_API 6.1.2 1
 _ZNK20QPlatformPrintDevice18supportedPageSizesEv@Qt_6_PRIVATE_API 6.1.2 1
 _ZNK20QPlatformPrintDevice19supportedColorModesEv@Qt_6_PRIVATE_API 6.1.2 1
 _ZNK20QPlatformPrintDevice19supportedInputSlotsEv@Qt_6_PRIVATE_API 6.1.2 1
 _ZNK20QPlatformPrintDevice19supportedOutputBinsEv@Qt_6_PRIVATE_API 6.1.2 1
 _ZNK20QPlatformPrintDevice20supportedDuplexModesEv@Qt_6_PRIVATE_API 6.1.2 1
 _ZNK20QPlatformPrintDevice20supportedResolutionsEv@Qt_6_PRIVATE_API 6.1.2 1
 _ZNK20QPlatformPrintDevice21supportsCollateCopiesEv@Qt_6_PRIVATE_API 6.1.2 1
 _ZNK20QPlatformPrintDevice22supportedPageSizeMatchERK9QPageSize@Qt_6_PRIVATE_API 6.1.2 1
 _ZNK20QPlatformPrintDevice22supportsMultipleCopiesEv@Qt_6_PRIVATE_API 6.1.2 1
 _ZNK20QPlatformPrintDevice23maximumPhysicalPageSizeEv@Qt_6_PRIVATE_API 6.1.2 1
 _ZNK20QPlatformPrintDevice23minimumPhysicalPageSizeEv@Qt_6_PRIVATE_API 6.1.2 1
 _ZNK20QPlatformPrintDevice23supportsCustomPageSizesEv@Qt_6_PRIVATE_API 6.1.2 1
 _ZNK20QPlatformPrintDevice2idEv@Qt_6_PRIVATE_API 6.1.2 1
 _ZNK20QPlatformPrintDevice4nameEv@Qt_6_PRIVATE_API 6.1.2 1
 _ZNK20QPlatformPrintDevice5stateEv@Qt_6_PRIVATE_API 6.1.2 1
 _ZNK20QPlatformPrintDevice7isValidEv@Qt_6_PRIVATE_API 6.1.2 1
 _ZNK20QPlatformPrintDevice8isRemoteEv@Qt_6_PRIVATE_API 6.1.2 1
 _ZNK20QPlatformPrintDevice8locationEv@Qt_6_PRIVATE_API 6.1.2 1
 _ZNK20QPlatformPrintDevice8propertyEN12QPrintDevice22PrintDevicePropertyKeyE@Qt_6_PRIVATE_API 6.1.2 1
 _ZNK20QPlatformPrintDevice9isDefaultEv@Qt_6_PRIVATE_API 6.1.2 1
 _ZNK23QPlatformPrinterSupport20defaultPrintDeviceIdEv@Qt_6_PRIVATE_API 6.1.2 1
 _ZNK23QPlatformPrinterSupport23availablePrintDeviceIdsEv@Qt_6_PRIVATE_API 6.1.2 1
 _ZNK29QPlatformPrinterSupportPlugin10metaObjectEv@Qt_6_PRIVATE_API 6.1.2 1
 _ZNK8QPrinter10pdfVersionEv@Qt_6 6.1.2
 _ZNK8QPrinter10printRangeEv@Qt_6 6.1.2
 _ZNK8QPrinter10resolutionEv@Qt_6 6.1.2
 _ZNK8QPrinter11paintEngineEv@Qt_6 6.1.2
 _ZNK8QPrinter11paperSourceEv@Qt_6 6.1.2
 _ZNK8QPrinter11printEngineEv@Qt_6 6.1.2
 _ZNK8QPrinter11printerNameEv@Qt_6 6.1.2
 _ZNK8QPrinter12outputFormatEv@Qt_6 6.1.2
 _ZNK8QPrinter12printProgramEv@Qt_6 6.1.2
 _ZNK8QPrinter12printerStateEv@Qt_6 6.1.2
 _ZNK8QPrinter13collateCopiesEv@Qt_6 6.1.2
 _ZNK8QPrinter14outputFileNameEv@Qt_6 6.1.2
 _ZNK8QPrinter20fontEmbeddingEnabledEv@Qt_6 6.1.2
 _ZNK8QPrinter20supportedResolutionsEv@Qt_6 6.1.2
 _ZNK8QPrinter22printerSelectionOptionEv@Qt_6 6.1.2
 _ZNK8QPrinter22supportsMultipleCopiesEv@Qt_6 6.1.2
 _ZNK8QPrinter6duplexEv@Qt_6 6.1.2
 _ZNK8QPrinter6metricEN12QPaintDevice17PaintDeviceMetricE@Qt_6 6.1.2
 _ZNK8QPrinter6toPageEv@Qt_6 6.1.2
 _ZNK8QPrinter7creatorEv@Qt_6 6.1.2
 _ZNK8QPrinter7devTypeEv@Qt_6 6.1.2
 _ZNK8QPrinter7docNameEv@Qt_6 6.1.2
 _ZNK8QPrinter7isValidEv@Qt_6 6.1.2
 _ZNK8QPrinter8fromPageEv@Qt_6 6.1.2
 _ZNK8QPrinter8fullPageEv@Qt_6 6.1.2
 _ZNK8QPrinter8pageRectENS_4UnitE@Qt_6 6.1.2
 _ZNK8QPrinter9colorModeEv@Qt_6 6.1.2
 _ZNK8QPrinter9copyCountEv@Qt_6 6.1.2
 _ZNK8QPrinter9pageOrderEv@Qt_6 6.1.2
 _ZNK8QPrinter9paperRectENS_4UnitE@Qt_6 6.1.2
 _ZTI12QPrintDialog@Qt_6 6.1.2
 _ZTI12QPrintEngine@Qt_6 6.1.2
 _ZTI15QPdfPrintEngine@Qt_6_PRIVATE_API 6.1.2 1
 _ZTI16QPageSetupDialog@Qt_6 6.1.2
 _ZTI17QAlphaPaintEngine@Qt_6_PRIVATE_API 6.1.2 1
 _ZTI19QPrintPreviewDialog@Qt_6 6.1.2
 _ZTI19QPrintPreviewWidget@Qt_6 6.1.2
 _ZTI20QAbstractPrintDialog@Qt_6 6.1.2
 _ZTI20QPlatformPrintDevice@Qt_6_PRIVATE_API 6.1.2 1
 _ZTI22QPdfPrintEnginePrivate@Qt_6_PRIVATE_API 6.1.2 1
 _ZTI23QPlatformPrinterSupport@Qt_6_PRIVATE_API 6.1.2 1
 _ZTI29QPlatformPrinterSupportPlugin@Qt_6_PRIVATE_API 6.1.2 1
 _ZTI8QPrinter@Qt_6 6.1.2
 _ZTIZN9QMetaType17registerConverterISt4pairI9QMarginsFN11QPageLayout4UnitEEN17QtMetaTypePrivate25QPairVariantInterfaceImplENS6_35QPairVariantInterfaceConvertFunctorIS5_EEEEbT1_EUlPKvPvE_@Qt_6 6.1.2
 _ZTS12QPrintDialog@Qt_6 6.1.2
 _ZTS12QPrintEngine@Qt_6 6.1.2
 _ZTS15QPdfPrintEngine@Qt_6_PRIVATE_API 6.1.2 1
 _ZTS16QPageSetupDialog@Qt_6 6.1.2
 _ZTS17QAlphaPaintEngine@Qt_6_PRIVATE_API 6.1.2 1
 _ZTS19QPrintPreviewDialog@Qt_6 6.1.2
 _ZTS19QPrintPreviewWidget@Qt_6 6.1.2
 _ZTS20QAbstractPrintDialog@Qt_6 6.1.2
 _ZTS20QPlatformPrintDevice@Qt_6_PRIVATE_API 6.1.2 1
 _ZTS22QPdfPrintEnginePrivate@Qt_6_PRIVATE_API 6.1.2 1
 _ZTS23QPlatformPrinterSupport@Qt_6_PRIVATE_API 6.1.2 1
 _ZTS29QPlatformPrinterSupportPlugin@Qt_6_PRIVATE_API 6.1.2 1
 _ZTS8QPrinter@Qt_6 6.1.2
 _ZTSZN9QMetaType17registerConverterISt4pairI9QMarginsFN11QPageLayout4UnitEEN17QtMetaTypePrivate25QPairVariantInterfaceImplENS6_35QPairVariantInterfaceConvertFunctorIS5_EEEEbT1_EUlPKvPvE_@Qt_6 6.1.2
 _ZTV12QPrintDialog@Qt_6 6.1.2
 _ZTV15QPdfPrintEngine@Qt_6_PRIVATE_API 6.1.2 1
 _ZTV16QPageSetupDialog@Qt_6 6.1.2
 _ZTV17QAlphaPaintEngine@Qt_6_PRIVATE_API 6.1.2 1
 _ZTV19QPrintPreviewDialog@Qt_6 6.1.2
 _ZTV19QPrintPreviewWidget@Qt_6 6.1.2
 _ZTV20QAbstractPrintDialog@Qt_6 6.1.2
 _ZTV20QPlatformPrintDevice@Qt_6_PRIVATE_API 6.1.2 1
 _ZTV22QPdfPrintEnginePrivate@Qt_6_PRIVATE_API 6.1.2 1
 _ZTV23QPlatformPrinterSupport@Qt_6_PRIVATE_API 6.1.2 1
 _ZTV29QPlatformPrinterSupportPlugin@Qt_6_PRIVATE_API 6.1.2 1
 _ZTV8QPrinter@Qt_6 6.1.2
 (optional=templinst)_ZZN9QMetaType21registerConverterImplISt4pairI9QMarginsFN11QPageLayout4UnitEEN17QtMetaTypePrivate25QPairVariantInterfaceImplEEEbSt8functionIFbPKvPvEES_S_E10unregister@Qt_6 6.2.0
 (optional=templinst)_ZZN9QtPrivate16QMetaTypeForTypeIbE10getCopyCtrEvENUlPKNS_18QMetaTypeInterfaceEPvPKvE_4_FUNES4_S5_S7_@Qt_6 6.1.2
 (optional=templinst)_ZZN9QtPrivate16QMetaTypeForTypeIbE10getMoveCtrEvENUlPKNS_18QMetaTypeInterfaceEPvS5_E_4_FUNES4_S5_S5_@Qt_6 6.1.2
 (optional=templinst)_ZZN9QtPrivate16QMetaTypeForTypeIbE13getDefaultCtrEvENUlPKNS_18QMetaTypeInterfaceEPvE_4_FUNES4_S5_@Qt_6 6.1.2
 (optional=templinst)_ZZN9QtPrivate16QMetaTypeForTypeIdE10getCopyCtrEvENUlPKNS_18QMetaTypeInterfaceEPvPKvE_4_FUNES4_S5_S7_@Qt_6 6.1.2
 (optional=templinst)_ZZN9QtPrivate16QMetaTypeForTypeIdE10getMoveCtrEvENUlPKNS_18QMetaTypeInterfaceEPvS5_E_4_FUNES4_S5_S5_@Qt_6 6.1.2
 (optional=templinst)_ZZN9QtPrivate16QMetaTypeForTypeIdE13getDefaultCtrEvENUlPKNS_18QMetaTypeInterfaceEPvE_4_FUNES4_S5_@Qt_6 6.1.2
 (optional=templinst)_ZZN9QtPrivate16QMetaTypeForTypeIiE10getCopyCtrEvENUlPKNS_18QMetaTypeInterfaceEPvPKvE_4_FUNES4_S5_S7_@Qt_6 6.1.2
 (optional=templinst)_ZZN9QtPrivate16QMetaTypeForTypeIiE10getMoveCtrEvENUlPKNS_18QMetaTypeInterfaceEPvS5_E_4_FUNES4_S5_S5_@Qt_6 6.1.2
 (optional=templinst)_ZZN9QtPrivate16QMetaTypeForTypeIiE13getDefaultCtrEvENUlPKNS_18QMetaTypeInterfaceEPvE_4_FUNES4_S5_@Qt_6 6.1.2
 _Zls6QDebugRK12QPrintDevice@Qt_6_PRIVATE_API 6.1.2 1
 _Zls6QDebugRK12QPrinterInfo@Qt_6 6.1.2
 (c++)"non-virtual thunk to QAbstractPrintDialog::~QAbstractPrintDialog()@Qt_6" 6.1.2
 (c++)"non-virtual thunk to QPageSetupDialog::~QPageSetupDialog()@Qt_6" 6.1.2
 (c++)"non-virtual thunk to QPdfPrintEngine::metric(QPaintDevice::PaintDeviceMetric) const@Qt_6_PRIVATE_API" 6.1.2 1
 (c++)"non-virtual thunk to QPdfPrintEngine::newPage()@Qt_6_PRIVATE_API" 6.1.2 1
 (c++)"non-virtual thunk to QPdfPrintEngine::property(QPrintEngine::PrintEnginePropertyKey) const@Qt_6_PRIVATE_API" 6.1.2 1
 (c++)"non-virtual thunk to QPdfPrintEngine::setProperty(QPrintEngine::PrintEnginePropertyKey, QVariant const&)@Qt_6_PRIVATE_API" 6.1.2 1
 (c++)"non-virtual thunk to QPdfPrintEngine::~QPdfPrintEngine()@Qt_6_PRIVATE_API" 6.1.2 1
 (c++)"non-virtual thunk to QPrintDialog::~QPrintDialog()@Qt_6" 6.1.2
 (c++)"non-virtual thunk to QPrintPreviewDialog::~QPrintPreviewDialog()@Qt_6" 6.1.2
 (c++)"non-virtual thunk to QPrintPreviewWidget::~QPrintPreviewWidget()@Qt_6" 6.1.2
